; ModuleID = '34/2239.c'
source_filename = "34/2239.c"
target datalayout = "e-m:e-p270:32:32-p271:32:32-p272:64:64-i64:64-f80:128-n8:16:32:64-S128"
target triple = "x86_64-pc-linux-gnu"

@.str = private unnamed_addr constant [9 x i8] c"%d/2=%d\0A\00", align 1
@.str.1 = private unnamed_addr constant [11 x i8] c"%d*3+1=%d\0A\00", align 1
@.str.2 = private unnamed_addr constant [4 x i8] c"%d\0A\00", align 1
@.str.3 = private unnamed_addr constant [4 x i8] c"End\00", align 1

; Function Attrs: noinline nounwind uwtable
define dso_local i32 @isodd(i32 %0) #0 {
  %2 = alloca i32, align 4
  %3 = alloca i32, align 4
  store i32 %0, i32* %3, align 4
  %4 = load i32, i32* %3, align 4
  %5 = srem i32 %4, 2
  %6 = icmp eq i32 %5, 0
  br i1 %6, label %7, label %8

7:                                                ; preds = %1
  store i32 1, i32* %2, align 4
  br label %9

8:                                                ; preds = %1
  store i32 0, i32* %2, align 4
  br label %9

9:                                                ; preds = %8, %7
  %10 = load i32, i32* %2, align 4
  ret i32 %10
}

; Function Attrs: noinline nounwind uwtable
define dso_local i32 @forodd(i32 %0) #0 {
  %2 = alloca i32, align 4
  store i32 %0, i32* %2, align 4
  %3 = load i32, i32* %2, align 4
  %4 = load i32, i32* %2, align 4
  %5 = sdiv i32 %4, 2
  %6 = call i32 (i8*, ...) @printf(i8* getelementptr inbounds ([9 x i8], [9 x i8]* @.str, i64 0, i64 0), i32 %3, i32 %5)
  %7 = load i32, i32* %2, align 4
  %8 = sdiv i32 %7, 2
  ret i32 %8
}

declare dso_local i32 @printf(i8*, ...) #1

; Function Attrs: noinline nounwind uwtable
define dso_local i32 @fornot(i32 %0) #0 {
  %2 = alloca i32, align 4
  store i32 %0, i32* %2, align 4
  %3 = load i32, i32* %2, align 4
  %4 = load i32, i32* %2, align 4
  %5 = mul nsw i32 %4, 3
  %6 = add nsw i32 %5, 1
  %7 = call i32 (i8*, ...) @printf(i8* getelementptr inbounds ([11 x i8], [11 x i8]* @.str.1, i64 0, i64 0), i32 %3, i32 %6)
  %8 = load i32, i32* %2, align 4
  %9 = mul nsw i32 %8, 3
  %10 = add nsw i32 %9, 1
  ret i32 %10
}

; Function Attrs: noinline nounwind uwtable
define dso_local i32 @main() #0 {
  %1 = alloca i32, align 4
  %2 = alloca i32, align 4
  store i32 0, i32* %1, align 4
  store i32 0, i32* %2, align 4
  %3 = call i32 (i8*, ...) @__isoc99_scanf(i8* getelementptr inbounds ([4 x i8], [4 x i8]* @.str.2, i64 0, i64 0), i32* %2)
  br label %4

4:                                                ; preds = %17, %0
  %5 = load i32, i32* %2, align 4
  %6 = icmp ne i32 %5, 1
  br i1 %6, label %7, label %18

7:                                                ; preds = %4
  %8 = load i32, i32* %2, align 4
  %9 = call i32 @isodd(i32 %8)
  %10 = icmp ne i32 %9, 0
  br i1 %10, label %11, label %14

11:                                               ; preds = %7
  %12 = load i32, i32* %2, align 4
  %13 = call i32 @forodd(i32 %12)
  store i32 %13, i32* %2, align 4
  br label %17

14:                                               ; preds = %7
  %15 = load i32, i32* %2, align 4
  %16 = call i32 @fornot(i32 %15)
  store i32 %16, i32* %2, align 4
  br label %17

17:                                               ; preds = %14, %11
  br label %4

18:                                               ; preds = %4
  %19 = call i32 (i8*, ...) @printf(i8* getelementptr inbounds ([4 x i8], [4 x i8]* @.str.3, i64 0, i64 0))
  ret i32 0
}

declare dso_local i32 @__isoc99_scanf(i8*, ...) #1


!llvm.module.flags = !{!0}
!llvm.ident = !{!1}

!0 = !{i32 1, !"wchar_size", i32 4}
!1 = !{!"clang version 10.0.0-4ubuntu1 "}
